target datalayout = "e-m:e-p270:32:32-p271:32:32-p272:64:64-i64:64-i128:128-f80:128-n8:16:32:64-S128"
target triple = "x86_64-pc-linux-gnu"

%struct.anon = type { double, double, double, double, double }

; Function Attrs: nounwind uwtable
define internal i32 @fB(double noundef %0, ptr noundef %1, ptr noundef %2, ptr noundef %3, ptr noundef %4) #0 {
  %6 = alloca double, align 8
  %7 = alloca ptr, align 8
  %8 = alloca ptr, align 8
  %9 = alloca ptr, align 8
  %10 = alloca ptr, align 8
  %11 = alloca ptr, align 8
  %12 = alloca ptr, align 8
  %13 = alloca ptr, align 8
  %14 = alloca double, align 8
  %15 = alloca double, align 8
  %16 = alloca double, align 8
  %17 = alloca double, align 8
  %18 = alloca double, align 8
  %19 = alloca double, align 8
  %20 = alloca double, align 8
  %21 = alloca double, align 8
  %22 = alloca double, align 8
  %23 = alloca double, align 8
  %24 = alloca double, align 8
  %25 = alloca i32, align 4
  %26 = alloca i32, align 4
  store double %0, ptr %6, align 8, !tbaa !21
  store ptr %1, ptr %7, align 8, !tbaa !12
  store ptr %2, ptr %8, align 8, !tbaa !12
  store ptr %3, ptr %9, align 8, !tbaa !12
  store ptr %4, ptr %10, align 8, !tbaa !11
  call void @llvm.lifetime.start.p0(i64 8, ptr %11) #6
  call void @llvm.lifetime.start.p0(i64 8, ptr %12) #6
  call void @llvm.lifetime.start.p0(i64 8, ptr %13) #6
  call void @llvm.lifetime.start.p0(i64 8, ptr %14) #6
  call void @llvm.lifetime.start.p0(i64 8, ptr %15) #6
  call void @llvm.lifetime.start.p0(i64 8, ptr %16) #6
  call void @llvm.lifetime.start.p0(i64 8, ptr %17) #6
  call void @llvm.lifetime.start.p0(i64 8, ptr %18) #6
  call void @llvm.lifetime.start.p0(i64 8, ptr %19) #6
  call void @llvm.lifetime.start.p0(i64 8, ptr %20) #6
  call void @llvm.lifetime.start.p0(i64 8, ptr %21) #6
  call void @llvm.lifetime.start.p0(i64 8, ptr %22) #6
  call void @llvm.lifetime.start.p0(i64 8, ptr %23) #6
  call void @llvm.lifetime.start.p0(i64 8, ptr %24) #6
  call void @llvm.lifetime.start.p0(i64 4, ptr %25) #6
  call void @llvm.lifetime.start.p0(i64 4, ptr %26) #6
  %27 = load ptr, ptr %8, align 8, !tbaa !12
  %28 = call ptr @N_VGetArrayPointer(ptr noundef %27)
  store ptr %28, ptr %12, align 8, !tbaa !34
  %29 = load ptr, ptr %9, align 8, !tbaa !12
  %30 = call ptr @N_VGetArrayPointer(ptr noundef %29)
  store ptr %30, ptr %13, align 8, !tbaa !34
  %31 = load ptr, ptr %10, align 8, !tbaa !11
  store ptr %31, ptr %11, align 8, !tbaa !11
  %32 = load ptr, ptr %11, align 8, !tbaa !11
  %33 = getelementptr inbounds nuw %struct.anon, ptr %32, i32 0, i32 2
  %34 = load double, ptr %33, align 8, !tbaa !23
  store double %34, ptr %14, align 8, !tbaa !21
  %35 = load ptr, ptr %11, align 8, !tbaa !11
  %36 = getelementptr inbounds nuw %struct.anon, ptr %35, i32 0, i32 3
  %37 = load double, ptr %36, align 8, !tbaa !24
  store double %37, ptr %15, align 8, !tbaa !21
  %38 = load ptr, ptr %11, align 8, !tbaa !11
  %39 = getelementptr inbounds nuw %struct.anon, ptr %38, i32 0, i32 4
  %40 = load double, ptr %39, align 8, !tbaa !25
  store double %40, ptr %16, align 8, !tbaa !21
  store i32 1, ptr %26, align 4, !tbaa !4
  br label %41

41:                                               ; preds = %167, %5
  %42 = load i32, ptr %26, align 4, !tbaa !4
  %43 = icmp sle i32 %42, 20
  br i1 %43, label %44, label %170

44:                                               ; preds = %41
  store i32 1, ptr %25, align 4, !tbaa !4
  br label %45

45:                                               ; preds = %163, %44
  %46 = load i32, ptr %25, align 4, !tbaa !4
  %47 = icmp sle i32 %46, 40
  br i1 %47, label %48, label %166

48:                                               ; preds = %45
  %49 = load ptr, ptr %12, align 8, !tbaa !34
  %50 = load i32, ptr %26, align 4, !tbaa !4
  %51 = sub nsw i32 %50, 1
  %52 = load i32, ptr %25, align 4, !tbaa !4
  %53 = sub nsw i32 %52, 1
  %54 = mul nsw i32 %53, 20
  %55 = add nsw i32 %51, %54
  %56 = sext i32 %55 to i64
  %57 = getelementptr inbounds double, ptr %49, i64 %56
  %58 = load double, ptr %57, align 8, !tbaa !21
  store double %58, ptr %17, align 8, !tbaa !21
  %59 = load i32, ptr %26, align 4, !tbaa !4
  %60 = icmp eq i32 %59, 1
  br i1 %60, label %61, label %62

61:                                               ; preds = %48
  br label %74

62:                                               ; preds = %48
  %63 = load ptr, ptr %12, align 8, !tbaa !34
  %64 = load i32, ptr %26, align 4, !tbaa !4
  %65 = sub nsw i32 %64, 1
  %66 = sub nsw i32 %65, 1
  %67 = load i32, ptr %25, align 4, !tbaa !4
  %68 = sub nsw i32 %67, 1
  %69 = mul nsw i32 %68, 20
  %70 = add nsw i32 %66, %69
  %71 = sext i32 %70 to i64
  %72 = getelementptr inbounds double, ptr %63, i64 %71
  %73 = load double, ptr %72, align 8, !tbaa !21
  br label %74

74:                                               ; preds = %62, %61
  %75 = phi double [ 0.000000e+00, %61 ], [ %73, %62 ]
  store double %75, ptr %18, align 8, !tbaa !21
  %76 = load i32, ptr %26, align 4, !tbaa !4
  %77 = icmp eq i32 %76, 20
  br i1 %77, label %78, label %79

78:                                               ; preds = %74
  br label %91

79:                                               ; preds = %74
  %80 = load ptr, ptr %12, align 8, !tbaa !34
  %81 = load i32, ptr %26, align 4, !tbaa !4
  %82 = add nsw i32 %81, 1
  %83 = sub nsw i32 %82, 1
  %84 = load i32, ptr %25, align 4, !tbaa !4
  %85 = sub nsw i32 %84, 1
  %86 = mul nsw i32 %85, 20
  %87 = add nsw i32 %83, %86
  %88 = sext i32 %87 to i64
  %89 = getelementptr inbounds double, ptr %80, i64 %88
  %90 = load double, ptr %89, align 8, !tbaa !21
  br label %91

91:                                               ; preds = %79, %78
  %92 = phi double [ 0.000000e+00, %78 ], [ %90, %79 ]
  store double %92, ptr %19, align 8, !tbaa !21
  %93 = load i32, ptr %25, align 4, !tbaa !4
  %94 = icmp eq i32 %93, 1
  br i1 %94, label %95, label %96

95:                                               ; preds = %91
  br label %108

96:                                               ; preds = %91
  %97 = load ptr, ptr %12, align 8, !tbaa !34
  %98 = load i32, ptr %26, align 4, !tbaa !4
  %99 = sub nsw i32 %98, 1
  %100 = load i32, ptr %25, align 4, !tbaa !4
  %101 = sub nsw i32 %100, 1
  %102 = sub nsw i32 %101, 1
  %103 = mul nsw i32 %102, 20
  %104 = add nsw i32 %99, %103
  %105 = sext i32 %104 to i64
  %106 = getelementptr inbounds double, ptr %97, i64 %105
  %107 = load double, ptr %106, align 8, !tbaa !21
  br label %108

108:                                              ; preds = %96, %95
  %109 = phi double [ 0.000000e+00, %95 ], [ %107, %96 ]
  store double %109, ptr %20, align 8, !tbaa !21
  %110 = load i32, ptr %25, align 4, !tbaa !4
  %111 = icmp eq i32 %110, 40
  br i1 %111, label %112, label %113

112:                                              ; preds = %108
  br label %125

113:                                              ; preds = %108
  %114 = load ptr, ptr %12, align 8, !tbaa !34
  %115 = load i32, ptr %26, align 4, !tbaa !4
  %116 = sub nsw i32 %115, 1
  %117 = load i32, ptr %25, align 4, !tbaa !4
  %118 = add nsw i32 %117, 1
  %119 = sub nsw i32 %118, 1
  %120 = mul nsw i32 %119, 20
  %121 = add nsw i32 %116, %120
  %122 = sext i32 %121 to i64
  %123 = getelementptr inbounds double, ptr %114, i64 %122
  %124 = load double, ptr %123, align 8, !tbaa !21
  br label %125

125:                                              ; preds = %113, %112
  %126 = phi double [ 0.000000e+00, %112 ], [ %124, %113 ]
  store double %126, ptr %21, align 8, !tbaa !21
  %127 = load double, ptr %14, align 8, !tbaa !21
  %128 = load double, ptr %20, align 8, !tbaa !21
  %129 = fneg double %128
  %130 = load double, ptr %17, align 8, !tbaa !21
  %131 = call double @llvm.fmuladd.f64(double 2.000000e+00, double %130, double %129)
  %132 = load double, ptr %21, align 8, !tbaa !21
  %133 = fsub double %131, %132
  %134 = fmul double %127, %133
  store double %134, ptr %22, align 8, !tbaa !21
  %135 = load double, ptr %15, align 8, !tbaa !21
  %136 = load double, ptr %21, align 8, !tbaa !21
  %137 = load double, ptr %20, align 8, !tbaa !21
  %138 = fsub double %136, %137
  %139 = fmul double %135, %138
  store double %139, ptr %23, align 8, !tbaa !21
  %140 = load double, ptr %16, align 8, !tbaa !21
  %141 = load double, ptr %19, align 8, !tbaa !21
  %142 = fneg double %141
  %143 = load double, ptr %17, align 8, !tbaa !21
  %144 = call double @llvm.fmuladd.f64(double 2.000000e+00, double %143, double %142)
  %145 = load double, ptr %18, align 8, !tbaa !21
  %146 = fsub double %144, %145
  %147 = fmul double %140, %146
  store double %147, ptr %24, align 8, !tbaa !21
  %148 = load double, ptr %22, align 8, !tbaa !21
  %149 = load double, ptr %23, align 8, !tbaa !21
  %150 = fadd double %148, %149
  %151 = load double, ptr %24, align 8, !tbaa !21
  %152 = fadd double %150, %151
  %153 = fsub double %152, 1.000000e+00
  %154 = load ptr, ptr %13, align 8, !tbaa !34
  %155 = load i32, ptr %26, align 4, !tbaa !4
  %156 = sub nsw i32 %155, 1
  %157 = load i32, ptr %25, align 4, !tbaa !4
  %158 = sub nsw i32 %157, 1
  %159 = mul nsw i32 %158, 20
  %160 = add nsw i32 %156, %159
  %161 = sext i32 %160 to i64
  %162 = getelementptr inbounds double, ptr %154, i64 %161
  store double %153, ptr %162, align 8, !tbaa !21
  br label %163

163:                                              ; preds = %125
  %164 = load i32, ptr %25, align 4, !tbaa !4
  %165 = add nsw i32 %164, 1
  store i32 %165, ptr %25, align 4, !tbaa !4
  br label %45

166:                                              ; preds = %45
  br label %167

167:                                              ; preds = %166
  %168 = load i32, ptr %26, align 4, !tbaa !4
  %169 = add nsw i32 %168, 1
  store i32 %169, ptr %26, align 4, !tbaa !4
  br label %41

170:                                              ; preds = %41
  call void @llvm.lifetime.end.p0(i64 4, ptr %26) #6
  call void @llvm.lifetime.end.p0(i64 4, ptr %25) #6
  call void @llvm.lifetime.end.p0(i64 8, ptr %24) #6
  call void @llvm.lifetime.end.p0(i64 8, ptr %23) #6
  call void @llvm.lifetime.end.p0(i64 8, ptr %22) #6
  call void @llvm.lifetime.end.p0(i64 8, ptr %21) #6
  call void @llvm.lifetime.end.p0(i64 8, ptr %20) #6
  call void @llvm.lifetime.end.p0(i64 8, ptr %19) #6
  call void @llvm.lifetime.end.p0(i64 8, ptr %18) #6
  call void @llvm.lifetime.end.p0(i64 8, ptr %17) #6
  call void @llvm.lifetime.end.p0(i64 8, ptr %16) #6
  call void @llvm.lifetime.end.p0(i64 8, ptr %15) #6
  call void @llvm.lifetime.end.p0(i64 8, ptr %14) #6
  call void @llvm.lifetime.end.p0(i64 8, ptr %13) #6
  call void @llvm.lifetime.end.p0(i64 8, ptr %12) #6
  call void @llvm.lifetime.end.p0(i64 8, ptr %11) #6
  ret i32 0
}