; Function Attrs: nounwind uwtable
define internal noundef i32 @fB(double %0, ptr readnone captures(none) %1, ptr noundef %2, ptr noundef %3, ptr noundef readonly captures(none) %4) #0 {
  %6 = tail call ptr @N_VGetArrayPointer(ptr noundef %2) #9
  %7 = tail call ptr @N_VGetArrayPointer(ptr noundef %3) #9
  %8 = getelementptr inbounds nuw i8, ptr %4, i64 16
  %9 = load double, ptr %8, align 8, !tbaa !13
  %10 = getelementptr inbounds nuw i8, ptr %4, i64 24
  %11 = load double, ptr %10, align 8, !tbaa !14
  %12 = getelementptr inbounds nuw i8, ptr %4, i64 32
  %13 = load double, ptr %12, align 8, !tbaa !15
  %invariant.gep75 = getelementptr i8, ptr %6, i64 -16
  br label %.preheader

.preheader:                                       ; preds = %5, %.split.us
  %indvars.iv62 = phi i64 [ 1, %5 ], [ %indvars.iv.next63, %.split.us ]
  %14 = add nsw i64 %indvars.iv62, -1
  %15 = icmp eq i64 %indvars.iv62, 1
  %16 = add nuw nsw i64 %indvars.iv62, -41
  %17 = icmp eq i64 %indvars.iv62, 20
  br i1 %15, label %.preheader.split.us, label %.preheader.split.preheader

.preheader.split.preheader:                       ; preds = %.preheader
  %gep76 = getelementptr double, ptr %invariant.gep75, i64 %indvars.iv62
  %invariant.gep = getelementptr double, ptr %6, i64 %indvars.iv62
  %invariant.gep69 = getelementptr double, ptr %6, i64 %16
  %invariant.gep71 = getelementptr double, ptr %6, i64 %14
  br label %.preheader.split

.preheader.split.us:                              ; preds = %.preheader
  %invariant.gep73 = getelementptr double, ptr %6, i64 %16
  br label %.thread.us

.thread.us:                                       ; preds = %31, %.preheader.split.us
  %indvars.iv56 = phi i64 [ %indvars.iv.next57, %31 ], [ 1, %.preheader.split.us ]
  %18 = mul nuw nsw i64 %indvars.iv56, 20
  %19 = add nsw i64 %18, -20
  %20 = getelementptr inbounds double, ptr %6, i64 %19
  %21 = load double, ptr %20, align 8, !tbaa !20
  %22 = getelementptr double, ptr %6, i64 %18
  %23 = getelementptr i8, ptr %22, i64 -152
  %24 = load double, ptr %23, align 8, !tbaa !20
  %25 = icmp eq i64 %indvars.iv56, 1
  br i1 %25, label %.thread46.us, label %26

26:                                               ; preds = %.thread.us
  %gep74 = getelementptr double, ptr %invariant.gep73, i64 %18
  %27 = load double, ptr %gep74, align 8, !tbaa !20
  %28 = icmp eq i64 %indvars.iv56, 40
  br i1 %28, label %31, label %.thread46.us

.thread46.us:                                     ; preds = %26, %.thread.us
  %29 = phi double [ %27, %26 ], [ 0.000000e+00, %.thread.us ]
  %30 = load double, ptr %22, align 8, !tbaa !20
  br label %31

31:                                               ; preds = %.thread46.us, %26
  %32 = phi double [ %29, %.thread46.us ], [ %27, %26 ]
  %33 = phi double [ %30, %.thread46.us ], [ 0.000000e+00, %26 ]
  %34 = fneg double %32
  %35 = tail call double @llvm.fmuladd.f64(double %21, double 2.000000e+00, double %34)
  %36 = fsub double %35, %33
  %37 = fmul double %9, %36
  %38 = fsub double %33, %32
  %39 = fmul double %11, %38
  %40 = fneg double %24
  %41 = tail call double @llvm.fmuladd.f64(double %21, double 2.000000e+00, double %40)
  %42 = fmul double %13, %41
  %43 = fadd double %37, %39
  %44 = fadd double %42, %43
  %45 = fadd double %44, -1.000000e+00
  %46 = getelementptr inbounds double, ptr %7, i64 %19
  store double %45, ptr %46, align 8, !tbaa !20
  %indvars.iv.next57 = add nuw nsw i64 %indvars.iv56, 1
  %exitcond61.not = icmp eq i64 %indvars.iv.next57, 41
  br i1 %exitcond61.not, label %.split.us, label %.thread.us

.preheader.split:                                 ; preds = %.preheader.split.preheader, %63
  %indvars.iv = phi i64 [ 1, %.preheader.split.preheader ], [ %indvars.iv.next, %63 ]
  %47 = mul nuw nsw i64 %indvars.iv, 20
  %48 = add nsw i64 %47, -20
  %49 = add nuw nsw i64 %48, %14
  %50 = getelementptr inbounds double, ptr %6, i64 %49
  %51 = load double, ptr %50, align 8, !tbaa !20
  %52 = getelementptr double, ptr %gep76, i64 %48
  %53 = load double, ptr %52, align 8, !tbaa !20
  br i1 %17, label %55, label %.thread

.thread:                                          ; preds = %.preheader.split
  %gep = getelementptr double, ptr %invariant.gep, i64 %48
  %54 = load double, ptr %gep, align 8, !tbaa !20
  br label %55

55:                                               ; preds = %.preheader.split, %.thread
  %56 = phi double [ %54, %.thread ], [ 0.000000e+00, %.preheader.split ]
  %57 = icmp eq i64 %indvars.iv, 1
  br i1 %57, label %.thread46, label %58

58:                                               ; preds = %55
  %gep70 = getelementptr double, ptr %invariant.gep69, i64 %47
  %59 = load double, ptr %gep70, align 8, !tbaa !20
  %60 = icmp eq i64 %indvars.iv, 40
  br i1 %60, label %63, label %.thread46

.thread46:                                        ; preds = %55, %58
  %61 = phi double [ %59, %58 ], [ 0.000000e+00, %55 ]
  %gep72 = getelementptr double, ptr %invariant.gep71, i64 %47
  %62 = load double, ptr %gep72, align 8, !tbaa !20
  br label %63

63:                                               ; preds = %58, %.thread46
  %64 = phi double [ %61, %.thread46 ], [ %59, %58 ]
  %65 = phi double [ %62, %.thread46 ], [ 0.000000e+00, %58 ]
  %66 = fneg double %64
  %67 = tail call double @llvm.fmuladd.f64(double %51, double 2.000000e+00, double %66)
  %68 = fsub double %67, %65
  %69 = fmul double %9, %68
  %70 = fsub double %65, %64
  %71 = fmul double %11, %70
  %72 = fneg double %56
  %73 = tail call double @llvm.fmuladd.f64(double %51, double 2.000000e+00, double %72)
  %74 = fsub double %73, %53
  %75 = fmul double %13, %74
  %76 = fadd double %69, %71
  %77 = fadd double %75, %76
  %78 = fadd double %77, -1.000000e+00
  %79 = getelementptr inbounds double, ptr %7, i64 %49
  store double %78, ptr %79, align 8, !tbaa !20
  %indvars.iv.next = add nuw nsw i64 %indvars.iv, 1
  %exitcond.not = icmp eq i64 %indvars.iv.next, 41
  br i1 %exitcond.not, label %.split.us, label %.preheader.split

.split.us:                                        ; preds = %63, %31
  %indvars.iv.next63 = add nuw nsw i64 %indvars.iv62, 1
  %exitcond67.not = icmp eq i64 %indvars.iv.next63, 21
  br i1 %exitcond67.not, label %80, label %.preheader

80:                                               ; preds = %.split.us
  ret i32 0
}